Certificate:
    Data:
        Version: 3 (0x2)
        Serial Number: 1 (0x1)
    Signature Algorithm: sha256WithRSAEncryption
        Issuer: CN=mme2.openair4G.eur, C=FR, ST=PACA, L=Aix, O=Eurecom, OU=CM
        Validity
            Not Before: Apr 24 07:34:20 2018 GMT
            Not After : Apr 24 07:34:20 2019 GMT
        Subject: C=FR, ST=PACA, O=Eurecom, OU=CM, CN=mme2.openair4G.eur
        Subject Public Key Info:
            Public Key Algorithm: rsaEncryption
                Public-Key: (1024 bit)
                Modulus:
                    00:d9:13:35:2d:92:c6:46:b6:a2:60:15:bf:26:50:
                    39:69:50:80:48:b0:2f:4e:a4:6a:c7:f3:83:74:00:
                    b1:62:83:82:c2:1d:3f:b6:79:7d:f1:3e:8c:fe:3e:
                    41:e4:57:f8:f4:4f:61:70:05:1e:76:2a:eb:e3:f1:
                    52:a3:5d:c3:31:a2:a9:f9:a9:64:56:95:6a:02:59:
                    39:3e:62:fc:b2:83:c2:e4:04:32:1b:35:f4:1e:fa:
                    71:13:6d:6d:2f:b0:7a:23:df:42:c5:a5:4e:77:93:
                    9d:17:76:04:d9:43:81:bf:92:3e:0f:11:d5:ba:b1:
                    b5:da:e2:6f:11:c5:98:55:61
                Exponent: 65537 (0x10001)
        X509v3 extensions:
            X509v3 Basic Constraints: 
                CA:FALSE
            Netscape Comment: 
                OpenSSL Generated Certificate
            X509v3 Subject Key Identifier: 
                81:70:52:FC:D7:9D:00:92:CD:5D:EB:B4:08:4A:10:A4:45:28:92:AB
            X509v3 Authority Key Identifier: 
                keyid:33:40:10:CD:FE:A0:DB:B5:0E:D8:70:1E:92:89:DC:60:28:45:61:BE

    Signature Algorithm: sha256WithRSAEncryption
         48:7d:e1:80:db:d0:6d:cc:1a:07:cb:18:eb:41:00:1c:c0:a1:
         fc:19:ef:24:e8:e3:28:ed:3d:53:81:3e:e2:ab:0e:b2:a5:0f:
         e0:62:9d:93:39:75:e0:2b:6c:57:7a:8f:90:f5:9a:69:0a:46:
         09:3c:09:4b:03:5b:a8:22:9e:bc:bc:ca:56:87:32:40:54:e5:
         85:c3:ca:cf:09:bd:c2:b9:17:23:a1:f2:3b:e3:e6:c5:8a:fd:
         a8:8b:d7:21:48:4b:11:29:25:a5:60:58:e0:5f:ce:9c:db:bd:
         96:b4:74:36:e8:96:ac:4e:e3:9d:1b:9e:f6:5d:42:ca:ba:60:
         cb:84
-----BEGIN CERTIFICATE-----
MIICrzCCAhigAwIBAgIBATANBgkqhkiG9w0BAQsFADBmMRswGQYDVQQDDBJtbWUy
Lm9wZW5haXI0Ry5ldXIxCzAJBgNVBAYTAkZSMQ0wCwYDVQQIDARQQUNBMQwwCgYD
VQQHDANBaXgxEDAOBgNVBAoMB0V1cmVjb20xCzAJBgNVBAsMAkNNMB4XDTE4MDQy
NDA3MzQyMFoXDTE5MDQyNDA3MzQyMFowWDELMAkGA1UEBhMCRlIxDTALBgNVBAgM
BFBBQ0ExEDAOBgNVBAoMB0V1cmVjb20xCzAJBgNVBAsMAkNNMRswGQYDVQQDDBJt
bWUyLm9wZW5haXI0Ry5ldXIwgZ8wDQYJKoZIhvcNAQEBBQADgY0AMIGJAoGBANkT
NS2Sxka2omAVvyZQOWlQgEiwL06kasfzg3QAsWKDgsIdP7Z5ffE+jP4+QeRX+PRP
YXAFHnYq6+PxUqNdwzGiqfmpZFaVagJZOT5i/LKDwuQEMhs19B76cRNtbS+weiPf
QsWlTneTnRd2BNlDgb+SPg8R1bqxtdribxHFmFVhAgMBAAGjezB5MAkGA1UdEwQC
MAAwLAYJYIZIAYb4QgENBB8WHU9wZW5TU0wgR2VuZXJhdGVkIENlcnRpZmljYXRl
MB0GA1UdDgQWBBSBcFL8150Aks1d67QIShCkRSiSqzAfBgNVHSMEGDAWgBQzQBDN
/qDbtQ7YcB6SidxgKEVhvjANBgkqhkiG9w0BAQsFAAOBgQBIfeGA29BtzBoHyxjr
QQAcwKH8Ge8k6OMo7T1TgT7iqw6ypQ/gYp2TOXXgK2xXeo+Q9ZppCkYJPAlLA1uo
Ip68vMpWhzJAVOWFw8rPCb3CuRcjofI74+bFiv2oi9chSEsRKSWlYFjgX86c272W
tHQ26JasTuOdG572XULKumDLhA==
-----END CERTIFICATE-----
