Certificate:
    Data:
        Version: 3 (0x2)
        Serial Number: 1 (0x1)
    Signature Algorithm: sha256WithRSAEncryption
        Issuer: CN=oai-hss-2.openair4G.eur, C=FR, ST=PACA, L=Aix, O=Eurecom, OU=CM
        Validity
            Not Before: Mar  1 15:38:28 2018 GMT
            Not After : Mar  1 15:38:28 2019 GMT
        Subject: C=FR, ST=PACA, O=Eurecom, OU=CM, CN=oai-hss-2.openair4G.eur
        Subject Public Key Info:
            Public Key Algorithm: rsaEncryption
                Public-Key: (1024 bit)
                Modulus:
                    00:da:cd:af:68:b8:15:b1:d5:80:06:ea:1e:00:1a:
                    47:34:3e:66:c2:1e:12:7b:9c:0c:ce:09:96:36:7b:
                    cf:10:2a:ae:82:3a:da:fb:41:52:96:53:5d:78:50:
                    76:9c:ca:34:e0:1a:43:d8:e0:87:79:c1:b3:e6:0f:
                    66:11:70:f2:47:66:d2:05:2e:37:5e:77:15:cb:95:
                    cd:3e:17:e4:f6:54:ad:92:f3:68:80:c6:26:3e:f4:
                    82:9d:ef:bf:51:9c:2e:cb:ae:74:06:70:dd:e7:b6:
                    60:4b:a0:77:eb:ca:8c:1a:fc:50:60:81:11:5e:e2:
                    e6:3c:70:df:1e:61:60:ad:33
                Exponent: 65537 (0x10001)
        X509v3 extensions:
            X509v3 Basic Constraints: 
                CA:FALSE
            Netscape Comment: 
                OpenSSL Generated Certificate
            X509v3 Subject Key Identifier: 
                CD:45:52:E2:27:85:65:CD:54:F7:45:C9:E7:D6:96:37:97:A4:15:A5
            X509v3 Authority Key Identifier: 
                keyid:37:DC:C0:DF:23:E2:4F:3B:D5:E5:E4:44:EC:F2:45:94:09:DC:D9:05

    Signature Algorithm: sha256WithRSAEncryption
         44:7e:3c:0d:14:c0:07:bd:7f:28:b4:53:27:79:9e:7a:64:c1:
         4e:63:a3:3f:d1:ab:2e:fa:6b:a0:45:91:ea:3a:52:8f:8a:27:
         f3:a8:b1:31:4b:03:14:b0:5d:e9:9b:6b:26:2d:7a:2a:d1:6b:
         bc:f5:90:bf:ef:16:1e:7a:80:a8:b0:ce:20:28:36:d4:5a:97:
         d3:ee:d8:36:d5:49:69:a2:51:c3:3c:7e:ad:41:1f:b8:c6:e3:
         a0:48:38:f0:47:b7:bf:92:d9:8d:38:74:e1:d6:5b:ba:95:0a:
         80:f1:63:3e:79:d0:a9:94:0d:f5:71:2c:e4:4b:12:50:ac:12:
         9b:d6
-----BEGIN CERTIFICATE-----
MIICuTCCAiKgAwIBAgIBATANBgkqhkiG9w0BAQsFADBrMSAwHgYDVQQDDBdvYWkt
aHNzLTIub3BlbmFpcjRHLmV1cjELMAkGA1UEBhMCRlIxDTALBgNVBAgMBFBBQ0Ex
DDAKBgNVBAcMA0FpeDEQMA4GA1UECgwHRXVyZWNvbTELMAkGA1UECwwCQ00wHhcN
MTgwMzAxMTUzODI4WhcNMTkwMzAxMTUzODI4WjBdMQswCQYDVQQGEwJGUjENMAsG
A1UECAwEUEFDQTEQMA4GA1UECgwHRXVyZWNvbTELMAkGA1UECwwCQ00xIDAeBgNV
BAMMF29haS1oc3MtMi5vcGVuYWlyNEcuZXVyMIGfMA0GCSqGSIb3DQEBAQUAA4GN
ADCBiQKBgQDaza9ouBWx1YAG6h4AGkc0PmbCHhJ7nAzOCZY2e88QKq6COtr7QVKW
U114UHacyjTgGkPY4Id5wbPmD2YRcPJHZtIFLjdedxXLlc0+F+T2VK2S82iAxiY+
9IKd779RnC7LrnQGcN3ntmBLoHfryowa/FBggRFe4uY8cN8eYWCtMwIDAQABo3sw
eTAJBgNVHRMEAjAAMCwGCWCGSAGG+EIBDQQfFh1PcGVuU1NMIEdlbmVyYXRlZCBD
ZXJ0aWZpY2F0ZTAdBgNVHQ4EFgQUzUVS4ieFZc1U90XJ59aWN5ekFaUwHwYDVR0j
BBgwFoAUN9zA3yPiTzvV5eRE7PJFlAnc2QUwDQYJKoZIhvcNAQELBQADgYEARH48
DRTAB71/KLRTJ3meemTBTmOjP9GrLvproEWR6jpSj4on86ixMUsDFLBd6ZtrJi16
KtFrvPWQv+8WHnqAqLDOICg21FqX0+7YNtVJaaJRwzx+rUEfuMbjoEg48Ee3v5LZ
jTh04dZbupUKgPFjPnnQqZQN9XEs5EsSUKwSm9Y=
-----END CERTIFICATE-----
