Certificate:
    Data:
        Version: 3 (0x2)
        Serial Number: 2 (0x2)
    Signature Algorithm: sha256WithRSAEncryption
        Issuer: CN=hss.openair4G.eur, C=FR, ST=PACA, L=Aix, O=Eurecom, OU=CM
        Validity
            Not Before: Apr 24 10:07:59 2018 GMT
            Not After : Apr 24 10:07:59 2019 GMT
        Subject: C=FR, ST=PACA, O=Eurecom, OU=CM, CN=hss.openair4G.eur
        Subject Public Key Info:
            Public Key Algorithm: rsaEncryption
                Public-Key: (1024 bit)
                Modulus:
                    00:c0:6a:f1:92:31:0f:95:98:80:ea:69:7d:76:7d:
                    f5:4f:31:42:71:16:0e:36:2b:33:ec:79:93:60:6b:
                    49:5e:ed:eb:e7:b6:b1:70:2f:8e:5c:59:a7:9a:f2:
                    17:77:3e:9a:59:23:3c:ad:14:18:e2:4f:69:c1:e5:
                    77:2e:47:5e:11:ef:f2:3c:6a:c2:e2:30:9f:fa:ec:
                    21:3d:12:d6:01:8e:6e:e1:b5:97:8c:fb:9a:00:70:
                    8f:67:4f:64:6a:d9:75:83:b8:3d:9a:57:46:4c:10:
                    d5:70:31:d3:0d:00:41:1d:8d:10:54:ec:c7:1a:08:
                    2f:26:32:d6:80:0d:32:2a:55
                Exponent: 65537 (0x10001)
        X509v3 extensions:
            X509v3 Basic Constraints: 
                CA:FALSE
            Netscape Comment: 
                OpenSSL Generated Certificate
            X509v3 Subject Key Identifier: 
                52:35:C9:E4:96:FD:A4:B9:1F:8D:80:F3:9A:BE:94:85:E1:98:50:8E
            X509v3 Authority Key Identifier: 
                keyid:2A:E6:38:78:2F:28:E1:66:32:9E:0F:24:39:9D:A4:CA:9B:E5:F8:71

    Signature Algorithm: sha256WithRSAEncryption
         30:f6:51:61:bc:e8:3c:a6:43:64:63:18:4a:9c:6c:64:14:1a:
         80:5f:f9:b2:20:cf:23:f4:ea:5e:f7:cc:56:41:d0:a0:23:20:
         55:23:22:1c:71:73:24:2a:59:27:c7:ba:bb:64:5e:33:c3:85:
         e1:56:f6:6f:41:b6:69:1d:53:8d:94:db:65:b4:ec:b0:a3:38:
         62:fa:65:64:9e:9a:0b:97:f0:10:ae:7c:f0:f6:9a:d5:89:f8:
         a8:09:dc:89:9d:9d:f0:95:9e:63:2f:72:72:c6:c3:a6:3b:4a:
         12:60:95:3e:9b:07:0f:b3:9e:39:93:49:cb:49:eb:a3:f1:16:
         d3:d0
-----BEGIN CERTIFICATE-----
MIICrTCCAhagAwIBAgIBAjANBgkqhkiG9w0BAQsFADBlMRowGAYDVQQDDBFoc3Mu
b3BlbmFpcjRHLmV1cjELMAkGA1UEBhMCRlIxDTALBgNVBAgMBFBBQ0ExDDAKBgNV
BAcMA0FpeDEQMA4GA1UECgwHRXVyZWNvbTELMAkGA1UECwwCQ00wHhcNMTgwNDI0
MTAwNzU5WhcNMTkwNDI0MTAwNzU5WjBXMQswCQYDVQQGEwJGUjENMAsGA1UECAwE
UEFDQTEQMA4GA1UECgwHRXVyZWNvbTELMAkGA1UECwwCQ00xGjAYBgNVBAMMEWhz
cy5vcGVuYWlyNEcuZXVyMIGfMA0GCSqGSIb3DQEBAQUAA4GNADCBiQKBgQDAavGS
MQ+VmIDqaX12ffVPMUJxFg42KzPseZNga0le7evntrFwL45cWaea8hd3PppZIzyt
FBjiT2nB5XcuR14R7/I8asLiMJ/67CE9EtYBjm7htZeM+5oAcI9nT2Rq2XWDuD2a
V0ZMENVwMdMNAEEdjRBU7McaCC8mMtaADTIqVQIDAQABo3sweTAJBgNVHRMEAjAA
MCwGCWCGSAGG+EIBDQQfFh1PcGVuU1NMIEdlbmVyYXRlZCBDZXJ0aWZpY2F0ZTAd
BgNVHQ4EFgQUUjXJ5Jb9pLkfjYDzmr6UheGYUI4wHwYDVR0jBBgwFoAUKuY4eC8o
4WYyng8kOZ2kypvl+HEwDQYJKoZIhvcNAQELBQADgYEAMPZRYbzoPKZDZGMYSpxs
ZBQagF/5siDPI/TqXvfMVkHQoCMgVSMiHHFzJCpZJ8e6u2ReM8OF4Vb2b0G2aR1T
jZTbZbTssKM4YvplZJ6aC5fwEK588Paa1Yn4qAnciZ2d8JWeYy9ycsbDpjtKEmCV
PpsHD7OeOZNJy0nro/EW09A=
-----END CERTIFICATE-----
